target datalayout = "e-m:e-p270:32:32-p271:32:32-p272:64:64-i64:64-i128:128-f80:128-n8:16:32:64-S128"
target triple = "x86_64-pc-linux-gnu"

%struct.__loadu_ps = type { <4 x float> }
%struct.__storeu_ps = type { <4 x float> }

; Function Attrs: alwaysinline nounwind uwtable
define internal void @_mm_storeu_ps(ptr noundef %0, <4 x float> noundef %1) #13 {
  %3 = alloca ptr, align 8
  %4 = alloca <4 x float>, align 16
  store ptr %0, ptr %3, align 8
  store <4 x float> %1, ptr %4, align 16
  %5 = load <4 x float>, ptr %4, align 16
  %6 = load ptr, ptr %3, align 8
  %7 = getelementptr inbounds nuw %struct.__storeu_ps, ptr %6, i32 0, i32 0
  store <4 x float> %5, ptr %7, align 1
  ret void
}

; Function Attrs: alwaysinline nounwind uwtable
define internal <4 x float> @_mm_castsi128_ps(<2 x i64> noundef %0) #13 {
  %2 = alloca <2 x i64>, align 16
  store <2 x i64> %0, ptr %2, align 16
  %3 = load <2 x i64>, ptr %2, align 16
  %4 = bitcast <2 x i64> %3 to <4 x float>
  ret <4 x float> %4
}

; Function Attrs: alwaysinline nounwind uwtable
define internal <2 x i64> @_mm_castps_si128(<4 x float> noundef %0) #13 {
  %2 = alloca <4 x float>, align 16
  store <4 x float> %0, ptr %2, align 16
  %3 = load <4 x float>, ptr %2, align 16
  %4 = bitcast <4 x float> %3 to <2 x i64>
  ret <2 x i64> %4
}

; Function Attrs: alwaysinline nounwind uwtable
define internal <4 x float> @_mm_loadu_ps(ptr noundef %0) #13 {
  %2 = alloca ptr, align 8
  store ptr %0, ptr %2, align 8
  %3 = load ptr, ptr %2, align 8
  %4 = getelementptr inbounds nuw %struct.__loadu_ps, ptr %3, i32 0, i32 0
  %5 = load <4 x float>, ptr %4, align 1
  ret <4 x float> %5
}

; Function Attrs: nounwind uwtable
define internal void @stbir__decode_float_linear_AR(ptr noundef %0, i32 noundef %1, ptr noundef %2) #12 {
  %4 = alloca ptr, align 8
  %5 = alloca i32, align 4
  %6 = alloca ptr, align 8
  %7 = alloca ptr, align 8
  %8 = alloca ptr, align 8
  %9 = alloca ptr, align 8
  %10 = alloca ptr, align 8
  %11 = alloca <4 x float>, align 16
  %12 = alloca <4 x float>, align 16
  %13 = alloca <4 x float>, align 16
  %14 = alloca <4 x float>, align 16
  %15 = alloca i32, align 4
  store ptr %0, ptr %4, align 8
  store i32 %1, ptr %5, align 4
  store ptr %2, ptr %6, align 8
  call void @llvm.lifetime.start.p0(i64 8, ptr %7) #19
  %16 = load ptr, ptr %4, align 8
  store ptr %16, ptr %7, align 8
  call void @llvm.lifetime.start.p0(i64 8, ptr %8) #19
  %17 = load ptr, ptr %7, align 8
  %18 = load i32, ptr %5, align 4
  %19 = sext i32 %18 to i64
  %20 = getelementptr inbounds float, ptr %17, i64 %19
  store ptr %20, ptr %8, align 8
  call void @llvm.lifetime.start.p0(i64 8, ptr %9) #19
  %21 = load ptr, ptr %6, align 8
  store ptr %21, ptr %9, align 8
  %22 = load i32, ptr %5, align 4
  %23 = icmp sge i32 %22, 16
  br i1 %23, label %24, label %98

24:                                               ; preds = %3
  call void @llvm.lifetime.start.p0(i64 8, ptr %10) #19
  %25 = load ptr, ptr %9, align 8
  %26 = load i32, ptr %5, align 4
  %27 = sext i32 %26 to i64
  %28 = getelementptr inbounds float, ptr %25, i64 %27
  %29 = getelementptr inbounds float, ptr %28, i64 -16
  store ptr %29, ptr %10, align 8
  %30 = load ptr, ptr %8, align 8
  %31 = getelementptr inbounds float, ptr %30, i64 -16
  store ptr %31, ptr %8, align 8
  br label %32

32:                                               ; preds = %94, %87, %24
  %33 = load ptr, ptr %7, align 8
  call void asm sideeffect "", "r,~{dirflag},~{fpsr},~{flags}"(ptr %33) #19, !srcloc !41
  call void @llvm.lifetime.start.p0(i64 16, ptr %11) #19
  call void @llvm.lifetime.start.p0(i64 16, ptr %12) #19
  call void @llvm.lifetime.start.p0(i64 16, ptr %13) #19
  call void @llvm.lifetime.start.p0(i64 16, ptr %14) #19
  %34 = load ptr, ptr %9, align 8
  %35 = call <4 x float> @_mm_loadu_ps(ptr noundef %34)
  store <4 x float> %35, ptr %11, align 16
  %36 = load ptr, ptr %9, align 8
  %37 = getelementptr inbounds float, ptr %36, i64 4
  %38 = call <4 x float> @_mm_loadu_ps(ptr noundef %37)
  store <4 x float> %38, ptr %12, align 16
  %39 = load ptr, ptr %9, align 8
  %40 = getelementptr inbounds float, ptr %39, i64 8
  %41 = call <4 x float> @_mm_loadu_ps(ptr noundef %40)
  store <4 x float> %41, ptr %13, align 16
  %42 = load ptr, ptr %9, align 8
  %43 = getelementptr inbounds float, ptr %42, i64 12
  %44 = call <4 x float> @_mm_loadu_ps(ptr noundef %43)
  store <4 x float> %44, ptr %14, align 16
  %45 = load <4 x float>, ptr %11, align 16
  %46 = call <2 x i64> @_mm_castps_si128(<4 x float> noundef %45)
  %47 = bitcast <2 x i64> %46 to <4 x i32>
  %48 = shufflevector <4 x i32> %47, <4 x i32> poison, <4 x i32> <i32 1, i32 0, i32 3, i32 2>
  %49 = bitcast <4 x i32> %48 to <2 x i64>
  %50 = call <4 x float> @_mm_castsi128_ps(<2 x i64> noundef %49)
  store <4 x float> %50, ptr %11, align 16
  %51 = load <4 x float>, ptr %12, align 16
  %52 = call <2 x i64> @_mm_castps_si128(<4 x float> noundef %51)
  %53 = bitcast <2 x i64> %52 to <4 x i32>
  %54 = shufflevector <4 x i32> %53, <4 x i32> poison, <4 x i32> <i32 1, i32 0, i32 3, i32 2>
  %55 = bitcast <4 x i32> %54 to <2 x i64>
  %56 = call <4 x float> @_mm_castsi128_ps(<2 x i64> noundef %55)
  store <4 x float> %56, ptr %12, align 16
  %57 = load <4 x float>, ptr %13, align 16
  %58 = call <2 x i64> @_mm_castps_si128(<4 x float> noundef %57)
  %59 = bitcast <2 x i64> %58 to <4 x i32>
  %60 = shufflevector <4 x i32> %59, <4 x i32> poison, <4 x i32> <i32 1, i32 0, i32 3, i32 2>
  %61 = bitcast <4 x i32> %60 to <2 x i64>
  %62 = call <4 x float> @_mm_castsi128_ps(<2 x i64> noundef %61)
  store <4 x float> %62, ptr %13, align 16
  %63 = load <4 x float>, ptr %14, align 16
  %64 = call <2 x i64> @_mm_castps_si128(<4 x float> noundef %63)
  %65 = bitcast <2 x i64> %64 to <4 x i32>
  %66 = shufflevector <4 x i32> %65, <4 x i32> poison, <4 x i32> <i32 1, i32 0, i32 3, i32 2>
  %67 = bitcast <4 x i32> %66 to <2 x i64>
  %68 = call <4 x float> @_mm_castsi128_ps(<2 x i64> noundef %67)
  store <4 x float> %68, ptr %14, align 16
  %69 = load ptr, ptr %7, align 8
  %70 = load <4 x float>, ptr %11, align 16
  call void @_mm_storeu_ps(ptr noundef %69, <4 x float> noundef %70)
  %71 = load ptr, ptr %7, align 8
  %72 = getelementptr inbounds float, ptr %71, i64 4
  %73 = load <4 x float>, ptr %12, align 16
  call void @_mm_storeu_ps(ptr noundef %72, <4 x float> noundef %73)
  %74 = load ptr, ptr %7, align 8
  %75 = getelementptr inbounds float, ptr %74, i64 8
  %76 = load <4 x float>, ptr %13, align 16
  call void @_mm_storeu_ps(ptr noundef %75, <4 x float> noundef %76)
  %77 = load ptr, ptr %7, align 8
  %78 = getelementptr inbounds float, ptr %77, i64 12
  %79 = load <4 x float>, ptr %14, align 16
  call void @_mm_storeu_ps(ptr noundef %78, <4 x float> noundef %79)
  call void @llvm.lifetime.end.p0(i64 16, ptr %14) #19
  call void @llvm.lifetime.end.p0(i64 16, ptr %13) #19
  call void @llvm.lifetime.end.p0(i64 16, ptr %12) #19
  call void @llvm.lifetime.end.p0(i64 16, ptr %11) #19
  %80 = load ptr, ptr %7, align 8
  %81 = getelementptr inbounds float, ptr %80, i64 16
  store ptr %81, ptr %7, align 8
  %82 = load ptr, ptr %9, align 8
  %83 = getelementptr inbounds float, ptr %82, i64 16
  store ptr %83, ptr %9, align 8
  %84 = load ptr, ptr %7, align 8
  %85 = load ptr, ptr %8, align 8
  %86 = icmp ule ptr %84, %85
  br i1 %86, label %87, label %88

87:                                               ; preds = %32
  br label %32, !llvm.loop !42

88:                                               ; preds = %32
  %89 = load ptr, ptr %7, align 8
  %90 = load ptr, ptr %8, align 8
  %91 = getelementptr inbounds float, ptr %90, i64 16
  %92 = icmp eq ptr %89, %91
  br i1 %92, label %93, label %94

93:                                               ; preds = %88
  br label %97

94:                                               ; preds = %88
  %95 = load ptr, ptr %8, align 8
  store ptr %95, ptr %7, align 8
  %96 = load ptr, ptr %10, align 8
  store ptr %96, ptr %9, align 8
  br label %32, !llvm.loop !42

97:                                               ; preds = %93
  store i32 1, ptr %15, align 4
  call void @llvm.lifetime.end.p0(i64 8, ptr %10) #19
  br label %155

98:                                               ; preds = %3
  %99 = load ptr, ptr %7, align 8
  %100 = getelementptr inbounds float, ptr %99, i64 4
  store ptr %100, ptr %7, align 8
  br label %101

101:                                              ; preds = %105, %98
  %102 = load ptr, ptr %7, align 8
  %103 = load ptr, ptr %8, align 8
  %104 = icmp ule ptr %102, %103
  br i1 %104, label %105, label %131

105:                                              ; preds = %101
  %106 = load ptr, ptr %7, align 8
  call void asm sideeffect "", "r,~{dirflag},~{fpsr},~{flags}"(ptr %106) #19, !srcloc !43
  %107 = load ptr, ptr %9, align 8
  %108 = getelementptr inbounds float, ptr %107, i64 1
  %109 = load float, ptr %108, align 4
  %110 = load ptr, ptr %7, align 8
  %111 = getelementptr inbounds float, ptr %110, i64 -4
  store float %109, ptr %111, align 4
  %112 = load ptr, ptr %9, align 8
  %113 = getelementptr inbounds float, ptr %112, i64 0
  %114 = load float, ptr %113, align 4
  %115 = load ptr, ptr %7, align 8
  %116 = getelementptr inbounds float, ptr %115, i64 -3
  store float %114, ptr %116, align 4
  %117 = load ptr, ptr %9, align 8
  %118 = getelementptr inbounds float, ptr %117, i64 3
  %119 = load float, ptr %118, align 4
  %120 = load ptr, ptr %7, align 8
  %121 = getelementptr inbounds float, ptr %120, i64 -2
  store float %119, ptr %121, align 4
  %122 = load ptr, ptr %9, align 8
  %123 = getelementptr inbounds float, ptr %122, i64 2
  %124 = load float, ptr %123, align 4
  %125 = load ptr, ptr %7, align 8
  %126 = getelementptr inbounds float, ptr %125, i64 -1
  store float %124, ptr %126, align 4
  %127 = load ptr, ptr %7, align 8
  %128 = getelementptr inbounds float, ptr %127, i64 4
  store ptr %128, ptr %7, align 8
  %129 = load ptr, ptr %9, align 8
  %130 = getelementptr inbounds float, ptr %129, i64 4
  store ptr %130, ptr %9, align 8
  br label %101, !llvm.loop !44

131:                                              ; preds = %101
  %132 = load ptr, ptr %7, align 8
  %133 = getelementptr inbounds float, ptr %132, i64 -4
  store ptr %133, ptr %7, align 8
  br label %134

134:                                              ; preds = %138, %131
  %135 = load ptr, ptr %7, align 8
  %136 = load ptr, ptr %8, align 8
  %137 = icmp ult ptr %135, %136
  br i1 %137, label %138, label %154

138:                                              ; preds = %134
  %139 = load ptr, ptr %7, align 8
  call void asm sideeffect "", "r,~{dirflag},~{fpsr},~{flags}"(ptr %139) #19, !srcloc !45
  %140 = load ptr, ptr %9, align 8
  %141 = getelementptr inbounds float, ptr %140, i64 1
  %142 = load float, ptr %141, align 4
  %143 = load ptr, ptr %7, align 8
  %144 = getelementptr inbounds float, ptr %143, i64 0
  store float %142, ptr %144, align 4
  %145 = load ptr, ptr %9, align 8
  %146 = getelementptr inbounds float, ptr %145, i64 0
  %147 = load float, ptr %146, align 4
  %148 = load ptr, ptr %7, align 8
  %149 = getelementptr inbounds float, ptr %148, i64 1
  store float %147, ptr %149, align 4
  %150 = load ptr, ptr %7, align 8
  %151 = getelementptr inbounds float, ptr %150, i64 2
  store ptr %151, ptr %7, align 8
  %152 = load ptr, ptr %9, align 8
  %153 = getelementptr inbounds float, ptr %152, i64 2
  store ptr %153, ptr %9, align 8
  br label %134, !llvm.loop !46

154:                                              ; preds = %134
  store i32 0, ptr %15, align 4
  br label %155

155:                                              ; preds = %154, %97
  call void @llvm.lifetime.end.p0(i64 8, ptr %9) #19
  call void @llvm.lifetime.end.p0(i64 8, ptr %8) #19
  call void @llvm.lifetime.end.p0(i64 8, ptr %7) #19
  %156 = load i32, ptr %15, align 4
  switch i32 %156, label %158 [
    i32 0, label %157
    i32 1, label %157
  ]

157:                                              ; preds = %155, %155
  ret void

158:                                              ; preds = %155
  unreachable
}