; Function Attrs: nounwind uwtable
define internal void @stbir__decode_float_linear_AR(ptr noundef %0, i32 noundef %1, ptr noundef readonly captures(none) %2) #22 {
  %4 = sext i32 %1 to i64
  %.idx = shl nsw i64 %4, 2
  %5 = getelementptr inbounds i8, ptr %0, i64 %.idx
  %6 = icmp sgt i32 %1, 15
  br i1 %6, label %7, label %.preheader64

.preheader64:                                     ; preds = %3
  %.not66 = icmp slt i32 %1, 4
  br i1 %.not66, label %.preheader, label %.lr.ph.preheader

.lr.ph.preheader:                                 ; preds = %.preheader64
  %.165 = getelementptr inbounds nuw i8, ptr %0, i64 16
  br label %.lr.ph

7:                                                ; preds = %3
  %8 = getelementptr inbounds nuw float, ptr %2, i64 %4
  %9 = getelementptr inbounds i8, ptr %8, i64 -64
  %10 = getelementptr inbounds i8, ptr %5, i64 -64
  br label %.backedge

.backedge:                                        ; preds = %.backedge.backedge, %7
  %.056 = phi ptr [ %2, %7 ], [ %.056.be, %.backedge.backedge ]
  %.0 = phi ptr [ %0, %7 ], [ %.0.be, %.backedge.backedge ]
  tail call void asm sideeffect "", "r,~{dirflag},~{fpsr},~{flags}"(ptr %.0) #54, !srcloc !66
  %11 = load <4 x float>, ptr %.056, align 1
  %12 = getelementptr inbounds nuw i8, ptr %.056, i64 16
  %13 = load <4 x float>, ptr %12, align 1
  %14 = getelementptr inbounds nuw i8, ptr %.056, i64 32
  %15 = load <4 x float>, ptr %14, align 1
  %16 = getelementptr inbounds nuw i8, ptr %.056, i64 48
  %17 = load <4 x float>, ptr %16, align 1
  %18 = shufflevector <4 x float> %11, <4 x float> poison, <4 x i32> <i32 1, i32 0, i32 3, i32 2>
  %19 = shufflevector <4 x float> %13, <4 x float> poison, <4 x i32> <i32 1, i32 0, i32 3, i32 2>
  %20 = shufflevector <4 x float> %15, <4 x float> poison, <4 x i32> <i32 1, i32 0, i32 3, i32 2>
  %21 = shufflevector <4 x float> %17, <4 x float> poison, <4 x i32> <i32 1, i32 0, i32 3, i32 2>
  store <4 x float> %18, ptr %.0, align 1
  %22 = getelementptr inbounds nuw i8, ptr %.0, i64 16
  store <4 x float> %19, ptr %22, align 1
  %23 = getelementptr inbounds nuw i8, ptr %.0, i64 32
  store <4 x float> %20, ptr %23, align 1
  %24 = getelementptr inbounds nuw i8, ptr %.0, i64 48
  store <4 x float> %21, ptr %24, align 1
  %25 = getelementptr inbounds nuw i8, ptr %.0, i64 64
  %26 = getelementptr inbounds nuw i8, ptr %.056, i64 64
  %.not62 = icmp ugt ptr %25, %10
  br i1 %.not62, label %27, label %.backedge.backedge

.backedge.backedge:                               ; preds = %.backedge, %27
  %.056.be = phi ptr [ %26, %.backedge ], [ %9, %27 ]
  %.0.be = phi ptr [ %25, %.backedge ], [ %10, %27 ]
  br label %.backedge, !llvm.loop !67

27:                                               ; preds = %.backedge
  %28 = icmp eq ptr %25, %5
  br i1 %28, label %.loopexit, label %.backedge.backedge

.preheader:                                       ; preds = %.lr.ph, %.preheader64
  %.157.lcssa = phi ptr [ %2, %.preheader64 ], [ %40, %.lr.ph ]
  %.pn.lcssa = phi ptr [ %0, %.preheader64 ], [ %.169, %.lr.ph ]
  %29 = icmp ult ptr %.pn.lcssa, %5
  br i1 %29, label %.lr.ph73, label %.loopexit

.lr.ph:                                           ; preds = %.lr.ph.preheader, %.lr.ph
  %.169 = phi ptr [ %.1, %.lr.ph ], [ %.165, %.lr.ph.preheader ]
  %.pn68 = phi ptr [ %.169, %.lr.ph ], [ %0, %.lr.ph.preheader ]
  %.15767 = phi ptr [ %40, %.lr.ph ], [ %2, %.lr.ph.preheader ]
  tail call void asm sideeffect "", "r,~{dirflag},~{fpsr},~{flags}"(ptr nonnull %.169) #54, !srcloc !68
  %30 = getelementptr inbounds nuw i8, ptr %.15767, i64 4
  %31 = load float, ptr %30, align 4
  store float %31, ptr %.pn68, align 4
  %32 = load float, ptr %.15767, align 4
  %33 = getelementptr inbounds nuw i8, ptr %.pn68, i64 4
  store float %32, ptr %33, align 4
  %34 = getelementptr inbounds nuw i8, ptr %.15767, i64 12
  %35 = load float, ptr %34, align 4
  %36 = getelementptr inbounds nuw i8, ptr %.pn68, i64 8
  store float %35, ptr %36, align 4
  %37 = getelementptr inbounds nuw i8, ptr %.15767, i64 8
  %38 = load float, ptr %37, align 4
  %39 = getelementptr inbounds nuw i8, ptr %.pn68, i64 12
  store float %38, ptr %39, align 4
  %40 = getelementptr inbounds nuw i8, ptr %.15767, i64 16
  %.1 = getelementptr inbounds nuw i8, ptr %.169, i64 16
  %.not = icmp ugt ptr %.1, %5
  br i1 %.not, label %.preheader, label %.lr.ph, !llvm.loop !69

.lr.ph73:                                         ; preds = %.preheader, %.lr.ph73
  %.272 = phi ptr [ %45, %.lr.ph73 ], [ %.pn.lcssa, %.preheader ]
  %.25871 = phi ptr [ %46, %.lr.ph73 ], [ %.157.lcssa, %.preheader ]
  tail call void asm sideeffect "", "r,~{dirflag},~{fpsr},~{flags}"(ptr nonnull %.272) #54, !srcloc !70
  %41 = getelementptr inbounds nuw i8, ptr %.25871, i64 4
  %42 = load float, ptr %41, align 4
  store float %42, ptr %.272, align 4
  %43 = load float, ptr %.25871, align 4
  %44 = getelementptr inbounds nuw i8, ptr %.272, i64 4
  store float %43, ptr %44, align 4
  %45 = getelementptr inbounds nuw i8, ptr %.272, i64 8
  %46 = getelementptr inbounds nuw i8, ptr %.25871, i64 8
  %47 = icmp ult ptr %45, %5
  br i1 %47, label %.lr.ph73, label %.loopexit, !llvm.loop !71

.loopexit:                                        ; preds = %.lr.ph73, %27, %.preheader
  ret void
}